target datalayout = "e-m:e-p270:32:32-p271:32:32-p272:64:64-i64:64-i128:128-f80:128-n8:16:32:64-S128"
target triple = "x86_64-pc-linux-gnu"

%class.LogTagSet = type { ptr, i64, [5 x i32], [4 x i8], %class.LogOutputList, %class.LogDecorators, ptr }
%class.LogOutputList = type <{ [6 x ptr], i32, [4 x i8] }>
%class.LogDecorators = type { i32 }
%class.GCTraceCPUTime = type { i8, double, double, double, ptr }

@.str.7 = private unnamed_addr constant [57 x i8] c"TraceCPUTime: os::getTimesSecs() returned invalid result\00", align 1
@.str.8 = private unnamed_addr constant [35 x i8] c"User=%3.2fs Sys=%3.2fs Real=%3.2fs\00", align 1
@_ZN16LogTagSetMappingILN6LogTag4typeE49ELS1_28ELS1_0ELS1_0ELS1_0ELS1_0EE7_tagsetE = linkonce_odr hidden global %class.LogTagSet zeroinitializer, comdat, align 8

; Function Attrs: mustprogress nounwind uwtable
define linkonce_odr hidden noundef zeroext i1 @_ZNK13LogOutputList8is_levelEN8LogLevel4typeE(ptr noundef nonnull align 8 dereferenceable(52) %0, i32 noundef %1) #1 comdat align 2 {
  %3 = alloca ptr, align 8
  %4 = alloca i32, align 4
  store ptr %0, ptr %3, align 8
  store i32 %1, ptr %4, align 4
  %5 = load ptr, ptr %3, align 8
  %6 = getelementptr inbounds %class.LogOutputList, ptr %5, i32 0, i32 0
  %7 = load i32, ptr %4, align 4
  %8 = zext i32 %7 to i64
  %9 = getelementptr inbounds [6 x ptr], ptr %6, i64 0, i64 %8
  %10 = load volatile ptr, ptr %9, align 8
  %11 = icmp ne ptr %10, null
  ret i1 %11
}

; Function Attrs: mustprogress nounwind uwtable
define linkonce_odr hidden noundef zeroext i1 @_ZNK9LogTagSet8is_levelEN8LogLevel4typeE(ptr noundef nonnull align 8 dereferenceable(112) %0, i32 noundef %1) #1 comdat align 2 {
  %3 = alloca ptr, align 8
  %4 = alloca i32, align 4
  store ptr %0, ptr %3, align 8
  store i32 %1, ptr %4, align 4
  %5 = load ptr, ptr %3, align 8
  %6 = getelementptr inbounds %class.LogTagSet, ptr %5, i32 0, i32 4
  %7 = load i32, ptr %4, align 4
  %8 = call noundef zeroext i1 @_ZNK13LogOutputList8is_levelEN8LogLevel4typeE(ptr noundef nonnull align 8 dereferenceable(52) %6, i32 noundef %7)
  ret i1 %8
}

; Function Attrs: mustprogress nounwind uwtable
define linkonce_odr hidden noundef nonnull align 8 dereferenceable(112) ptr @_ZN16LogTagSetMappingILN6LogTag4typeE49ELS1_28ELS1_0ELS1_0ELS1_0ELS1_0EE6tagsetEv() #1 comdat align 2 {
  ret ptr @_ZN16LogTagSetMappingILN6LogTag4typeE49ELS1_28ELS1_0ELS1_0ELS1_0ELS1_0EE7_tagsetE
}

; Function Attrs: mustprogress nounwind uwtable
define linkonce_odr hidden noundef zeroext i1 @_ZN7LogImplILN6LogTag4typeE49ELS1_28ELS1_0ELS1_0ELS1_0ELS1_0EE8is_levelEN8LogLevel4typeE(i32 noundef %0) #1 comdat align 2 {
  %2 = alloca i32, align 4
  store i32 %0, ptr %2, align 4
  %3 = call noundef nonnull align 8 dereferenceable(112) ptr @_ZN16LogTagSetMappingILN6LogTag4typeE49ELS1_28ELS1_0ELS1_0ELS1_0ELS1_0EE6tagsetEv()
  %4 = load i32, ptr %2, align 4
  %5 = call noundef zeroext i1 @_ZNK9LogTagSet8is_levelEN8LogLevel4typeE(ptr noundef nonnull align 8 dereferenceable(112) %3, i32 noundef %4)
  ret i1 %5
}

; Function Attrs: mustprogress nounwind uwtable
define hidden void @_ZN14GCTraceCPUTimeD2Ev(ptr noundef nonnull align 8 dereferenceable(40) %0) unnamed_addr #1 align 2 {
  %2 = alloca ptr, align 8
  %3 = alloca double, align 8
  %4 = alloca double, align 8
  %5 = alloca double, align 8
  %6 = alloca i8, align 1
  store ptr %0, ptr %2, align 8
  %7 = load ptr, ptr %2, align 8
  %8 = getelementptr inbounds %class.GCTraceCPUTime, ptr %7, i32 0, i32 0
  %9 = load i8, ptr %8, align 8
  %10 = trunc i8 %9 to i1
  br i1 %10, label %11, label %52

11:                                               ; preds = %1
  %12 = call noundef zeroext i1 @_ZN2os12getTimesSecsEPdS0_S0_(ptr noundef %3, ptr noundef %4, ptr noundef %5)
  %13 = zext i1 %12 to i8
  store i8 %13, ptr %6, align 1
  %14 = load i8, ptr %6, align 1
  %15 = trunc i8 %14 to i1
  br i1 %15, label %16, label %46

16:                                               ; preds = %11
  %17 = getelementptr inbounds %class.GCTraceCPUTime, ptr %7, i32 0, i32 1
  %18 = load double, ptr %17, align 8
  %19 = load double, ptr %4, align 8
  %20 = fsub double %19, %18
  store double %20, ptr %4, align 8
  %21 = getelementptr inbounds %class.GCTraceCPUTime, ptr %7, i32 0, i32 2
  %22 = load double, ptr %21, align 8
  %23 = load double, ptr %5, align 8
  %24 = fsub double %23, %22
  store double %24, ptr %5, align 8
  %25 = getelementptr inbounds %class.GCTraceCPUTime, ptr %7, i32 0, i32 3
  %26 = load double, ptr %25, align 8
  %27 = load double, ptr %3, align 8
  %28 = fsub double %27, %26
  store double %28, ptr %3, align 8
  %29 = call noundef zeroext i1 @_ZN7LogImplILN6LogTag4typeE49ELS1_28ELS1_0ELS1_0ELS1_0ELS1_0EE8is_levelEN8LogLevel4typeE(i32 noundef 3)
  br i1 %29, label %31, label %30

30:                                               ; preds = %16
  br label %35

31:                                               ; preds = %16
  %32 = load double, ptr %4, align 8
  %33 = load double, ptr %5, align 8
  %34 = load double, ptr %3, align 8
  call void (ptr, ...) @_ZN7LogImplILN6LogTag4typeE49ELS1_28ELS1_0ELS1_0ELS1_0ELS1_0EE5writeILN8LogLevel4typeE3EEEvPKcz(ptr noundef @.str.8, double noundef %32, double noundef %33, double noundef %34)
  br label %35

35:                                               ; preds = %31, %30
  %36 = getelementptr inbounds %class.GCTraceCPUTime, ptr %7, i32 0, i32 4
  %37 = load ptr, ptr %36, align 8
  %38 = icmp ne ptr %37, null
  br i1 %38, label %39, label %45

39:                                               ; preds = %35
  %40 = getelementptr inbounds %class.GCTraceCPUTime, ptr %7, i32 0, i32 4
  %41 = load ptr, ptr %40, align 8
  %42 = load double, ptr %4, align 8
  %43 = load double, ptr %5, align 8
  %44 = load double, ptr %3, align 8
  call void @_ZNK8GCTracer21report_cpu_time_eventEddd(ptr noundef nonnull align 8 dereferenceable(80) %41, double noundef %42, double noundef %43, double noundef %44)
  br label %45

45:                                               ; preds = %39, %35
  br label %51

46:                                               ; preds = %11
  %47 = call noundef zeroext i1 @_ZN7LogImplILN6LogTag4typeE49ELS1_28ELS1_0ELS1_0ELS1_0ELS1_0EE8is_levelEN8LogLevel4typeE(i32 noundef 4)
  br i1 %47, label %49, label %48

48:                                               ; preds = %46
  br label %50

49:                                               ; preds = %46
  call void (ptr, ...) @_ZN7LogImplILN6LogTag4typeE49ELS1_28ELS1_0ELS1_0ELS1_0ELS1_0EE5writeILN8LogLevel4typeE4EEEvPKcz(ptr noundef @.str.7)
  br label %50

50:                                               ; preds = %49, %48
  br label %51

51:                                               ; preds = %50, %45
  br label %52

52:                                               ; preds = %51, %1
  ret void
}