; Function Attrs: mustprogress nounwind uwtable
define hidden void @_ZN14GCTraceCPUTimeD2Ev(ptr nocapture noundef nonnull readonly align 8 dereferenceable(40) %0) unnamed_addr #0 align 2 {
  %2 = alloca double, align 8
  %3 = alloca double, align 8
  %4 = alloca double, align 8
  %5 = load i8, ptr %0, align 8
  %6 = trunc i8 %5 to i1
  br i1 %6, label %7, label %34

7:                                                ; preds = %1
  %8 = call noundef zeroext i1 @_ZN2os12getTimesSecsEPdS0_S0_(ptr noundef nonnull %2, ptr noundef nonnull %3, ptr noundef nonnull %4) #7
  br i1 %8, label %9, label %31

9:                                                ; preds = %7
  %10 = getelementptr inbounds i8, ptr %0, i64 8
  %11 = load double, ptr %10, align 8
  %12 = load double, ptr %3, align 8
  %13 = fsub double %12, %11
  store double %13, ptr %3, align 8
  %14 = getelementptr inbounds i8, ptr %0, i64 16
  %15 = load double, ptr %14, align 8
  %16 = load double, ptr %4, align 8
  %17 = fsub double %16, %15
  store double %17, ptr %4, align 8
  %18 = getelementptr inbounds i8, ptr %0, i64 24
  %19 = load double, ptr %18, align 8
  %20 = load double, ptr %2, align 8
  %21 = fsub double %20, %19
  store double %21, ptr %2, align 8
  %22 = load volatile ptr, ptr getelementptr inbounds (i8, ptr @_ZN16LogTagSetMappingILN6LogTag4typeE49ELS1_28ELS1_0ELS1_0ELS1_0ELS1_0EE7_tagsetE, i64 64), align 8
  %.not2 = icmp eq ptr %22, null
  br i1 %.not2, label %24, label %23

23:                                               ; preds = %9
  call void (ptr, ...) @_ZN7LogImplILN6LogTag4typeE49ELS1_28ELS1_0ELS1_0ELS1_0ELS1_0EE5writeILN8LogLevel4typeE3EEEvPKcz(ptr noundef nonnull @.str.8, double noundef %13, double noundef %17, double noundef %21)
  br label %24

24:                                               ; preds = %9, %23
  %25 = getelementptr inbounds i8, ptr %0, i64 32
  %26 = load ptr, ptr %25, align 8
  %.not = icmp eq ptr %26, null
  br i1 %.not, label %34, label %27

27:                                               ; preds = %24
  %28 = load double, ptr %3, align 8
  %29 = load double, ptr %4, align 8
  %30 = load double, ptr %2, align 8
  call void @_ZNK8GCTracer21report_cpu_time_eventEddd(ptr noundef nonnull align 8 dereferenceable(80) %26, double noundef %28, double noundef %29, double noundef %30) #7
  br label %34

31:                                               ; preds = %7
  %32 = load volatile ptr, ptr getelementptr inbounds (i8, ptr @_ZN16LogTagSetMappingILN6LogTag4typeE49ELS1_28ELS1_0ELS1_0ELS1_0ELS1_0EE7_tagsetE, i64 72), align 8
  %.not1 = icmp eq ptr %32, null
  br i1 %.not1, label %34, label %33

33:                                               ; preds = %31
  call void (ptr, ...) @_ZN7LogImplILN6LogTag4typeE49ELS1_28ELS1_0ELS1_0ELS1_0ELS1_0EE5writeILN8LogLevel4typeE4EEEvPKcz(ptr noundef nonnull @.str.7)
  br label %34

34:                                               ; preds = %27, %24, %31, %33, %1
  ret void
}